target datalayout = "e-m:e-p270:32:32-p271:32:32-p272:64:64-i64:64-i128:128-f80:128-n8:16:32:64-S128"
target triple = "x86_64-pc-linux-gnu"

%"class.icu_77::UObject" = type { ptr }
%"class.(anonymous namespace)::AvailableLocalesStringEnumeration" = type { %"class.icu_77::StringEnumeration.base", i32, i32, [4 x i8] }
%"class.icu_77::StringEnumeration.base" = type <{ %"class.icu_77::UObject", %"class.icu_77::UnicodeString", [32 x i8], ptr, i32 }>
%"class.icu_77::UnicodeString" = type { %"class.icu_77::Replaceable", %"union.icu_77::UnicodeString::StackBufferOrFields" }
%"class.icu_77::Replaceable" = type { %"class.icu_77::UObject" }
%"union.icu_77::UnicodeString::StackBufferOrFields" = type { %struct.anon.0, [32 x i8] }
%struct.anon.0 = type { i16, i32, i32, ptr }

@_ZN12_GLOBAL__N_122gAvailableLocaleCountsE = internal global [2 x i32] zeroinitializer, align 4
@_ZN12_GLOBAL__N_121gAvailableLocaleNamesE = internal global [2 x ptr] zeroinitializer, align 16

; Function Attrs: inlinehint mustprogress nounwind uwtable
define internal noundef signext i8 @_ZL9U_FAILURE10UErrorCode(i32 noundef %0) #7 {
  %2 = alloca i32, align 4
  store i32 %0, ptr %2, align 4, !tbaa !31
  %3 = load i32, ptr %2, align 4, !tbaa !31
  %4 = icmp sgt i32 %3, 0
  %5 = zext i1 %4 to i8
  ret i8 %5
}

; Function Attrs: mustprogress nounwind uwtable
define internal noundef ptr @_ZN12_GLOBAL__N_133AvailableLocalesStringEnumeration4nextEPiR10UErrorCode(ptr noundef nonnull align 8 dereferenceable(124) %0, ptr noundef %1, ptr noundef nonnull align 4 dereferenceable(4) %2) unnamed_addr #6 align 2 {
  %4 = alloca ptr, align 8
  %5 = alloca ptr, align 8
  %6 = alloca ptr, align 8
  %7 = alloca ptr, align 8
  %8 = alloca i32, align 4
  %9 = alloca i32, align 4
  %10 = alloca i32, align 4
  %11 = alloca i32, align 4
  %12 = alloca ptr, align 8
  store ptr %0, ptr %5, align 8, !tbaa !32
  store ptr %1, ptr %6, align 8, !tbaa !17
  store ptr %2, ptr %7, align 8, !tbaa !21
  %13 = load ptr, ptr %5, align 8
  %14 = load ptr, ptr %7, align 8, !tbaa !21
  %15 = load i32, ptr %14, align 4, !tbaa !31
  %16 = call noundef signext i8 @_ZL9U_FAILURE10UErrorCode(i32 noundef %15)
  %17 = icmp ne i8 %16, 0
  br i1 %17, label %18, label %19

18:                                               ; preds = %3
  store ptr null, ptr %4, align 8
  br label %72

19:                                               ; preds = %3
  call void @llvm.lifetime.start.p0(i64 4, ptr %8) #12
  %20 = getelementptr inbounds nuw %"class.(anonymous namespace)::AvailableLocalesStringEnumeration", ptr %13, i32 0, i32 1
  %21 = load i32, ptr %20, align 4, !tbaa !34
  store i32 %21, ptr %8, align 4, !tbaa !29
  call void @llvm.lifetime.start.p0(i64 4, ptr %9) #12
  %22 = getelementptr inbounds nuw %"class.(anonymous namespace)::AvailableLocalesStringEnumeration", ptr %13, i32 0, i32 2
  %23 = load i32, ptr %22, align 8, !tbaa !40
  %24 = add nsw i32 %23, 1
  store i32 %24, ptr %22, align 8, !tbaa !40
  store i32 %23, ptr %9, align 4, !tbaa !3
  %25 = getelementptr inbounds nuw %"class.(anonymous namespace)::AvailableLocalesStringEnumeration", ptr %13, i32 0, i32 1
  %26 = load i32, ptr %25, align 4, !tbaa !34
  %27 = icmp eq i32 %26, 2
  br i1 %27, label %28, label %39

28:                                               ; preds = %19
  call void @llvm.lifetime.start.p0(i64 4, ptr %10) #12
  %29 = load i32, ptr @_ZN12_GLOBAL__N_122gAvailableLocaleCountsE, align 4, !tbaa !3
  store i32 %29, ptr %10, align 4, !tbaa !3
  %30 = load i32, ptr %9, align 4, !tbaa !3
  %31 = load i32, ptr %10, align 4, !tbaa !3
  %32 = icmp slt i32 %30, %31
  br i1 %32, label %33, label %34

33:                                               ; preds = %28
  store i32 0, ptr %8, align 4, !tbaa !29
  br label %38

34:                                               ; preds = %28
  %35 = load i32, ptr %10, align 4, !tbaa !3
  %36 = load i32, ptr %9, align 4, !tbaa !3
  %37 = sub nsw i32 %36, %35
  store i32 %37, ptr %9, align 4, !tbaa !3
  store i32 1, ptr %8, align 4, !tbaa !29
  br label %38

38:                                               ; preds = %34, %33
  call void @llvm.lifetime.end.p0(i64 4, ptr %10) #12
  br label %39

39:                                               ; preds = %38, %19
  call void @llvm.lifetime.start.p0(i64 4, ptr %11) #12
  %40 = load i32, ptr %8, align 4, !tbaa !29
  %41 = zext i32 %40 to i64
  %42 = getelementptr inbounds nuw [2 x i32], ptr @_ZN12_GLOBAL__N_122gAvailableLocaleCountsE, i64 0, i64 %41
  %43 = load i32, ptr %42, align 4, !tbaa !3
  store i32 %43, ptr %11, align 4, !tbaa !3
  call void @llvm.lifetime.start.p0(i64 8, ptr %12) #12
  %44 = load i32, ptr %9, align 4, !tbaa !3
  %45 = load i32, ptr %11, align 4, !tbaa !3
  %46 = icmp slt i32 %44, %45
  br i1 %46, label %47, label %64

47:                                               ; preds = %39
  %48 = load i32, ptr %8, align 4, !tbaa !29
  %49 = zext i32 %48 to i64
  %50 = getelementptr inbounds nuw [2 x ptr], ptr @_ZN12_GLOBAL__N_121gAvailableLocaleNamesE, i64 0, i64 %49
  %51 = load ptr, ptr %50, align 8, !tbaa !12
  %52 = load i32, ptr %9, align 4, !tbaa !3
  %53 = sext i32 %52 to i64
  %54 = getelementptr inbounds ptr, ptr %51, i64 %53
  %55 = load ptr, ptr %54, align 8, !tbaa !15
  store ptr %55, ptr %12, align 8, !tbaa !15
  %56 = load ptr, ptr %6, align 8, !tbaa !17
  %57 = icmp ne ptr %56, null
  br i1 %57, label %58, label %63

58:                                               ; preds = %47
  %59 = load ptr, ptr %12, align 8, !tbaa !15
  %60 = call i64 @strlen(ptr noundef %59) #14
  %61 = trunc i64 %60 to i32
  %62 = load ptr, ptr %6, align 8, !tbaa !17
  store i32 %61, ptr %62, align 4, !tbaa !3
  br label %63

63:                                               ; preds = %58, %47
  br label %70

64:                                               ; preds = %39
  store ptr null, ptr %12, align 8, !tbaa !15
  %65 = load ptr, ptr %6, align 8, !tbaa !17
  %66 = icmp ne ptr %65, null
  br i1 %66, label %67, label %69

67:                                               ; preds = %64
  %68 = load ptr, ptr %6, align 8, !tbaa !17
  store i32 0, ptr %68, align 4, !tbaa !3
  br label %69

69:                                               ; preds = %67, %64
  br label %70

70:                                               ; preds = %69, %63
  %71 = load ptr, ptr %12, align 8, !tbaa !15
  store ptr %71, ptr %4, align 8
  call void @llvm.lifetime.end.p0(i64 8, ptr %12) #12
  call void @llvm.lifetime.end.p0(i64 4, ptr %11) #12
  call void @llvm.lifetime.end.p0(i64 4, ptr %9) #12
  call void @llvm.lifetime.end.p0(i64 4, ptr %8) #12
  br label %72

72:                                               ; preds = %70, %18
  %73 = load ptr, ptr %4, align 8
  ret ptr %73
}