; Function Attrs: mustprogress nofree nounwind willreturn memory(read, argmem: readwrite, inaccessiblemem: none) uwtable
define internal noundef ptr @_ZN12_GLOBAL__N_133AvailableLocalesStringEnumeration4nextEPiR10UErrorCode(ptr noundef nonnull align 8 captures(none) dereferenceable(124) %0, ptr noundef writeonly %1, ptr noundef nonnull readonly align 4 captures(none) dereferenceable(4) %2) unnamed_addr #12 align 2 {
  %4 = load i32, ptr %2, align 4, !tbaa !22
  %5 = icmp slt i32 %4, 1
  br i1 %5, label %6, label %32

6:                                                ; preds = %3
  %7 = getelementptr inbounds nuw i8, ptr %0, i64 116
  %8 = load i32, ptr %7, align 4, !tbaa !30
  %9 = getelementptr inbounds nuw i8, ptr %0, i64 120
  %10 = load i32, ptr %9, align 8, !tbaa !37
  %11 = add nsw i32 %10, 1
  store i32 %11, ptr %9, align 8, !tbaa !37
  %12 = icmp eq i32 %8, 2
  br i1 %12, label %13, label %17

13:                                               ; preds = %6
  %14 = load i32, ptr @_ZN12_GLOBAL__N_122gAvailableLocaleCountsE, align 4, !tbaa !10
  %15 = icmp sge i32 %10, %14
  %16 = select i1 %15, i32 %14, i32 0
  %.120 = sub nsw i32 %10, %16
  %.1 = zext i1 %15 to i32
  br label %17

17:                                               ; preds = %13, %6
  %.019 = phi i32 [ %.120, %13 ], [ %10, %6 ]
  %.018 = phi i32 [ %.1, %13 ], [ %8, %6 ]
  %18 = zext i32 %.018 to i64
  %19 = getelementptr inbounds nuw [2 x i32], ptr @_ZN12_GLOBAL__N_122gAvailableLocaleCountsE, i64 0, i64 %18
  %20 = load i32, ptr %19, align 4, !tbaa !10
  %21 = icmp slt i32 %.019, %20
  br i1 %21, label %22, label %31

22:                                               ; preds = %17
  %23 = getelementptr inbounds nuw [2 x ptr], ptr @_ZN12_GLOBAL__N_121gAvailableLocaleNamesE, i64 0, i64 %18
  %24 = load ptr, ptr %23, align 8, !tbaa !15
  %25 = sext i32 %.019 to i64
  %26 = getelementptr inbounds ptr, ptr %24, i64 %25
  %27 = load ptr, ptr %26, align 8, !tbaa !18
  %.not27 = icmp eq ptr %1, null
  br i1 %.not27, label %32, label %28

28:                                               ; preds = %22
  %29 = tail call i64 @strlen(ptr noundef nonnull dereferenceable(1) %27) #16
  %30 = trunc i64 %29 to i32
  br label %.sink.split

31:                                               ; preds = %17
  %.not26 = icmp eq ptr %1, null
  br i1 %.not26, label %32, label %.sink.split

.sink.split:                                      ; preds = %31, %28
  %.sink = phi i32 [ %30, %28 ], [ 0, %31 ]
  %.017.ph = phi ptr [ %27, %28 ], [ null, %31 ]
  store i32 %.sink, ptr %1, align 4, !tbaa !10
  br label %32

32:                                               ; preds = %.sink.split, %22, %31, %3
  %.017 = phi ptr [ null, %3 ], [ %27, %22 ], [ null, %31 ], [ %.017.ph, %.sink.split ]
  ret ptr %.017
}